; Function Attrs: mustprogress uwtable
define void @_ZNK8QuantLib22JointStochasticProcess12stdDeviationEdRKNS_5ArrayEd(ptr dead_on_unwind noalias writable sret(%"class.QuantLib::Matrix") align 8 %agg.result, ptr noundef nonnull align 8 dereferenceable(272) %this, double noundef %t0, ptr noundef nonnull align 8 dereferenceable(16) %x0, double noundef %dt) unnamed_addr #6 align 2 personality ptr @__gxx_personality_v0 {
entry:
  %ref.tmp = alloca %"class.QuantLib::Matrix", align 8
  call void @llvm.lifetime.start.p0(i64 24, ptr nonnull %ref.tmp) #27
  %vtable = load ptr, ptr %this, align 8, !tbaa !28
  %vfn = getelementptr inbounds i8, ptr %vtable, i64 88
  %0 = load ptr, ptr %vfn, align 8
  call void %0(ptr dead_on_unwind nonnull writable sret(%"class.QuantLib::Matrix") align 8 %ref.tmp, ptr noundef nonnull align 8 dereferenceable(272) %this, double noundef %t0, ptr noundef nonnull align 8 dereferenceable(16) %x0, double noundef %dt)
  invoke void @_ZN8QuantLib10pseudoSqrtERKNS_6MatrixENS_18SalvagingAlgorithm4TypeE(ptr dead_on_unwind writable sret(%"class.QuantLib::Matrix") align 8 %agg.result, ptr noundef nonnull align 8 dereferenceable(24) %ref.tmp, i32 noundef 0)
          to label %invoke.cont unwind label %lpad

invoke.cont:                                      ; preds = %entry
  %1 = load ptr, ptr %ref.tmp, align 8, !tbaa !3
  %cmp.not.i.i = icmp eq ptr %1, null
  br i1 %cmp.not.i.i, label %_ZN8QuantLib6MatrixD2Ev.exit, label %_ZNKSt14default_deleteIA_dEclIdEENSt9enable_ifIXsr14is_convertibleIPA_T_PS0_EE5valueEvE4typeEPS4_.exit.i.i

_ZNKSt14default_deleteIA_dEclIdEENSt9enable_ifIXsr14is_convertibleIPA_T_PS0_EE5valueEvE4typeEPS4_.exit.i.i: ; preds = %invoke.cont
  call void @_ZdaPv(ptr noundef nonnull %1) #31
  br label %_ZN8QuantLib6MatrixD2Ev.exit

_ZN8QuantLib6MatrixD2Ev.exit:                     ; preds = %invoke.cont, %_ZNKSt14default_deleteIA_dEclIdEENSt9enable_ifIXsr14is_convertibleIPA_T_PS0_EE5valueEvE4typeEPS4_.exit.i.i
  call void @llvm.lifetime.end.p0(i64 24, ptr nonnull %ref.tmp) #27
  ret void

lpad:                                             ; preds = %entry
  %2 = landingpad { ptr, i32 }
          cleanup
  %3 = load ptr, ptr %ref.tmp, align 8, !tbaa !3
  %cmp.not.i.i1 = icmp eq ptr %3, null
  br i1 %cmp.not.i.i1, label %_ZN8QuantLib6MatrixD2Ev.exit3, label %_ZNKSt14default_deleteIA_dEclIdEENSt9enable_ifIXsr14is_convertibleIPA_T_PS0_EE5valueEvE4typeEPS4_.exit.i.i2

_ZNKSt14default_deleteIA_dEclIdEENSt9enable_ifIXsr14is_convertibleIPA_T_PS0_EE5valueEvE4typeEPS4_.exit.i.i2: ; preds = %lpad
  call void @_ZdaPv(ptr noundef nonnull %3) #31
  br label %_ZN8QuantLib6MatrixD2Ev.exit3

_ZN8QuantLib6MatrixD2Ev.exit3:                    ; preds = %lpad, %_ZNKSt14default_deleteIA_dEclIdEENSt9enable_ifIXsr14is_convertibleIPA_T_PS0_EE5valueEvE4typeEPS4_.exit.i.i2
  call void @llvm.lifetime.end.p0(i64 24, ptr nonnull %ref.tmp) #27
  resume { ptr, i32 } %2
}